target datalayout = "e-m:e-p270:32:32-p271:32:32-p272:64:64-i64:64-i128:128-f80:128-n8:16:32:64-S128"
target triple = "x86_64-pc-linux-gnu"

%class.MethodMatcher = type { ptr, ptr, ptr, i32, i32 }
%class.BasicMatcher = type { %class.MethodMatcher, ptr }

@.str.18 = private unnamed_addr constant [9 x i8] c"%*[ \09]%n\00", align 1
@.str.19 = private unnamed_addr constant [48 x i8] c"Unrecognized trailing text after method pattern\00", align 1

; Function Attrs: mustprogress nounwind uwtable
define linkonce_odr hidden void @_ZN12CHeapObjBasedlEPv(ptr noundef %0) #1 comdat align 2 {
  %2 = alloca ptr, align 8
  store ptr %0, ptr %2, align 8
  %3 = load ptr, ptr %2, align 8
  call void @_Z8FreeHeapPv(ptr noundef %3)
  ret void
}

; Function Attrs: mustprogress nounwind uwtable
define hidden void @_ZN13MethodMatcherD2Ev(ptr noundef nonnull align 8 dereferenceable(32) %0) unnamed_addr #1 align 2 {
  %2 = alloca ptr, align 8
  store ptr %0, ptr %2, align 8
  %3 = load ptr, ptr %2, align 8
  %4 = getelementptr inbounds %class.MethodMatcher, ptr %3, i32 0, i32 0
  %5 = load ptr, ptr %4, align 8
  %6 = icmp ne ptr %5, null
  br i1 %6, label %7, label %10

7:                                                ; preds = %1
  %8 = getelementptr inbounds %class.MethodMatcher, ptr %3, i32 0, i32 0
  %9 = load ptr, ptr %8, align 8
  call void @_ZN6Symbol18decrement_refcountEv(ptr noundef nonnull align 4 dereferenceable(8) %9)
  br label %10

10:                                               ; preds = %7, %1
  %11 = getelementptr inbounds %class.MethodMatcher, ptr %3, i32 0, i32 1
  %12 = load ptr, ptr %11, align 8
  %13 = icmp ne ptr %12, null
  br i1 %13, label %14, label %17

14:                                               ; preds = %10
  %15 = getelementptr inbounds %class.MethodMatcher, ptr %3, i32 0, i32 1
  %16 = load ptr, ptr %15, align 8
  call void @_ZN6Symbol18decrement_refcountEv(ptr noundef nonnull align 4 dereferenceable(8) %16)
  br label %17

17:                                               ; preds = %14, %10
  %18 = getelementptr inbounds %class.MethodMatcher, ptr %3, i32 0, i32 2
  %19 = load ptr, ptr %18, align 8
  %20 = icmp ne ptr %19, null
  br i1 %20, label %21, label %24

21:                                               ; preds = %17
  %22 = getelementptr inbounds %class.MethodMatcher, ptr %3, i32 0, i32 2
  %23 = load ptr, ptr %22, align 8
  call void @_ZN6Symbol18decrement_refcountEv(ptr noundef nonnull align 4 dereferenceable(8) %23)
  br label %24

24:                                               ; preds = %21, %17
  ret void
}

; Function Attrs: mustprogress nounwind uwtable
define hidden void @_ZN13MethodMatcherC2Ev(ptr noundef nonnull align 8 dereferenceable(32) %0) unnamed_addr #1 align 2 {
  %2 = alloca ptr, align 8
  store ptr %0, ptr %2, align 8
  %3 = load ptr, ptr %2, align 8
  %4 = getelementptr inbounds %class.MethodMatcher, ptr %3, i32 0, i32 0
  store ptr null, ptr %4, align 8
  %5 = getelementptr inbounds %class.MethodMatcher, ptr %3, i32 0, i32 1
  store ptr null, ptr %5, align 8
  %6 = getelementptr inbounds %class.MethodMatcher, ptr %3, i32 0, i32 2
  store ptr null, ptr %6, align 8
  %7 = getelementptr inbounds %class.MethodMatcher, ptr %3, i32 0, i32 3
  store i32 0, ptr %7, align 8
  %8 = getelementptr inbounds %class.MethodMatcher, ptr %3, i32 0, i32 4
  store i32 0, ptr %8, align 4
  ret void
}

; Function Attrs: mustprogress nounwind uwtable
define linkonce_odr hidden void @_ZN8CHeapObjIL8MEMFLAGS7EEdlEPv(ptr noundef %0) #1 comdat align 2 {
  %2 = alloca ptr, align 8
  store ptr %0, ptr %2, align 8
  %3 = load ptr, ptr %2, align 8
  call void @_ZN12CHeapObjBasedlEPv(ptr noundef %3) #9
  ret void
}

; Function Attrs: mustprogress nounwind uwtable
define linkonce_odr hidden void @_ZN12BasicMatcherD2Ev(ptr noundef nonnull align 8 dereferenceable(40) %0) unnamed_addr #1 comdat align 2 {
  %2 = alloca ptr, align 8
  store ptr %0, ptr %2, align 8
  %3 = load ptr, ptr %2, align 8
  call void @_ZN13MethodMatcherD2Ev(ptr noundef nonnull align 8 dereferenceable(32) %3) #9
  ret void
}

; Function Attrs: mustprogress nounwind uwtable
define linkonce_odr hidden void @_ZN12BasicMatcherC2Ev(ptr noundef nonnull align 8 dereferenceable(40) %0) unnamed_addr #1 comdat align 2 {
  %2 = alloca ptr, align 8
  store ptr %0, ptr %2, align 8
  %3 = load ptr, ptr %2, align 8
  call void @_ZN13MethodMatcherC2Ev(ptr noundef nonnull align 8 dereferenceable(32) %3)
  %4 = getelementptr inbounds %class.BasicMatcher, ptr %3, i32 0, i32 1
  store ptr null, ptr %4, align 8
  ret void
}

; Function Attrs: mustprogress nounwind uwtable
define hidden noundef ptr @_ZN12BasicMatcher20parse_method_patternEPcRPKcb(ptr noundef %0, ptr noundef nonnull align 8 dereferenceable(8) %1, i1 noundef zeroext %2) #1 align 2 {
  %4 = alloca i64, align 8
  %5 = alloca i8, align 1
  %6 = alloca i64, align 8
  %7 = alloca ptr, align 8
  %8 = alloca ptr, align 8
  %9 = alloca ptr, align 8
  %10 = alloca i8, align 1
  %11 = alloca ptr, align 8
  %12 = alloca i32, align 4
  store ptr %0, ptr %8, align 8
  store ptr %1, ptr %9, align 8
  %13 = zext i1 %2 to i8
  store i8 %13, ptr %10, align 1
  store i64 40, ptr %6, align 8
  %14 = load i64, ptr %6, align 8
  store i64 %14, ptr %4, align 8
  store i8 7, ptr %5, align 1
  %15 = load i64, ptr %4, align 8
  %16 = load i8, ptr %5, align 1
  %17 = call noundef ptr @_Z12AllocateHeapm8MEMFLAGSN17AllocFailStrategy13AllocFailEnumE(i64 noundef %15, i8 noundef zeroext %16, i32 noundef 0) #9
  call void @_ZN12BasicMatcherC2Ev(ptr noundef nonnull align 8 dereferenceable(40) %17)
  store ptr %17, ptr %11, align 8
  %18 = load ptr, ptr %9, align 8
  %19 = load ptr, ptr %11, align 8
  call void @_ZN13MethodMatcher20parse_method_patternERPcRPKcPS_(ptr noundef nonnull align 8 dereferenceable(8) %8, ptr noundef nonnull align 8 dereferenceable(8) %18, ptr noundef %19)
  %20 = load ptr, ptr %9, align 8
  %21 = load ptr, ptr %20, align 8
  %22 = icmp ne ptr %21, null
  br i1 %22, label %23, label %28

23:                                               ; preds = %3
  %24 = load ptr, ptr %11, align 8
  %25 = icmp eq ptr %24, null
  br i1 %25, label %27, label %26

26:                                               ; preds = %23
  call void @_ZN12BasicMatcherD2Ev(ptr noundef nonnull align 8 dereferenceable(40) %24) #9
  call void @_ZN8CHeapObjIL8MEMFLAGS7EEdlEPv(ptr noundef %24) #9
  br label %27

27:                                               ; preds = %26, %23
  store ptr null, ptr %7, align 8
  br label %50

28:                                               ; preds = %3
  %29 = load i8, ptr %10, align 1
  %30 = trunc i8 %29 to i1
  br i1 %30, label %48, label %31

31:                                               ; preds = %28
  store i32 0, ptr %12, align 4
  %32 = load ptr, ptr %8, align 8
  %33 = call i32 (ptr, ptr, ...) @__isoc99_sscanf(ptr noundef %32, ptr noundef @.str.18, ptr noundef %12) #9
  %34 = load ptr, ptr %8, align 8
  %35 = load i32, ptr %12, align 4
  %36 = sext i32 %35 to i64
  %37 = getelementptr inbounds i8, ptr %34, i64 %36
  %38 = load i8, ptr %37, align 1
  %39 = sext i8 %38 to i32
  %40 = icmp ne i32 %39, 0
  br i1 %40, label %41, label %47

41:                                               ; preds = %31
  %42 = load ptr, ptr %9, align 8
  store ptr @.str.19, ptr %42, align 8
  %43 = load ptr, ptr %11, align 8
  %44 = icmp eq ptr %43, null
  br i1 %44, label %46, label %45

45:                                               ; preds = %41
  call void @_ZN12BasicMatcherD2Ev(ptr noundef nonnull align 8 dereferenceable(40) %43) #9
  call void @_ZN8CHeapObjIL8MEMFLAGS7EEdlEPv(ptr noundef %43) #9
  br label %46

46:                                               ; preds = %45, %41
  store ptr null, ptr %7, align 8
  br label %50

47:                                               ; preds = %31
  br label %48

48:                                               ; preds = %47, %28
  %49 = load ptr, ptr %11, align 8
  store ptr %49, ptr %7, align 8
  br label %50

50:                                               ; preds = %48, %46, %27
  %51 = load ptr, ptr %7, align 8
  ret ptr %51
}