; Function Attrs: mustprogress nounwind uwtable
define hidden noundef ptr @_ZN12BasicMatcher20parse_method_patternEPcRPKcb(ptr noundef %0, ptr nocapture noundef nonnull align 8 dereferenceable(8) %1, i1 noundef zeroext %2) local_unnamed_addr #1 align 2 {
  %4 = alloca ptr, align 8
  %5 = alloca i32, align 4
  store ptr %0, ptr %4, align 8
  %6 = tail call noundef ptr @_Z12AllocateHeapm8MEMFLAGSN17AllocFailStrategy13AllocFailEnumE(i64 noundef 40, i8 noundef zeroext 7, i32 noundef 0) #14
  tail call void @llvm.memset.p0.i64(ptr noundef nonnull align 8 dereferenceable(40) %6, i8 0, i64 40, i1 false)
  call void @_ZN13MethodMatcher20parse_method_patternERPcRPKcPS_(ptr noundef nonnull align 8 dereferenceable(8) %4, ptr noundef nonnull align 8 dereferenceable(8) %1, ptr noundef nonnull %6)
  %7 = load ptr, ptr %1, align 8
  %.not = icmp eq ptr %7, null
  br i1 %.not, label %19, label %8

8:                                                ; preds = %3
  %9 = load ptr, ptr %6, align 8
  %.not.i.i = icmp eq ptr %9, null
  br i1 %.not.i.i, label %11, label %10

10:                                               ; preds = %8
  tail call void @_ZN6Symbol18decrement_refcountEv(ptr noundef nonnull align 4 dereferenceable(8) %9) #14
  br label %11

11:                                               ; preds = %10, %8
  %12 = getelementptr inbounds i8, ptr %6, i64 8
  %13 = load ptr, ptr %12, align 8
  %.not3.i.i = icmp eq ptr %13, null
  br i1 %.not3.i.i, label %15, label %14

14:                                               ; preds = %11
  tail call void @_ZN6Symbol18decrement_refcountEv(ptr noundef nonnull align 4 dereferenceable(8) %13) #14
  br label %15

15:                                               ; preds = %14, %11
  %16 = getelementptr inbounds i8, ptr %6, i64 16
  %17 = load ptr, ptr %16, align 8
  %.not4.i.i = icmp eq ptr %17, null
  br i1 %.not4.i.i, label %_ZN12BasicMatcherD2Ev.exit, label %18

18:                                               ; preds = %15
  tail call void @_ZN6Symbol18decrement_refcountEv(ptr noundef nonnull align 4 dereferenceable(8) %17) #14
  br label %_ZN12BasicMatcherD2Ev.exit

_ZN12BasicMatcherD2Ev.exit:                       ; preds = %15, %18
  tail call void @_Z8FreeHeapPv(ptr noundef nonnull %6) #14
  br label %38

19:                                               ; preds = %3
  br i1 %2, label %38, label %20

20:                                               ; preds = %19
  store i32 0, ptr %5, align 4
  %21 = load ptr, ptr %4, align 8
  %22 = call i32 (ptr, ptr, ...) @__isoc99_sscanf(ptr noundef %21, ptr noundef nonnull @.str.18, ptr noundef nonnull %5) #14
  %23 = load i32, ptr %5, align 4
  %24 = sext i32 %23 to i64
  %25 = getelementptr inbounds i8, ptr %21, i64 %24
  %26 = load i8, ptr %25, align 1
  %.not11 = icmp eq i8 %26, 0
  br i1 %.not11, label %38, label %27

27:                                               ; preds = %20
  store ptr @.str.19, ptr %1, align 8
  %28 = load ptr, ptr %6, align 8
  %.not.i.i12 = icmp eq ptr %28, null
  br i1 %.not.i.i12, label %30, label %29

29:                                               ; preds = %27
  call void @_ZN6Symbol18decrement_refcountEv(ptr noundef nonnull align 4 dereferenceable(8) %28) #14
  br label %30

30:                                               ; preds = %29, %27
  %31 = getelementptr inbounds i8, ptr %6, i64 8
  %32 = load ptr, ptr %31, align 8
  %.not3.i.i13 = icmp eq ptr %32, null
  br i1 %.not3.i.i13, label %34, label %33

33:                                               ; preds = %30
  call void @_ZN6Symbol18decrement_refcountEv(ptr noundef nonnull align 4 dereferenceable(8) %32) #14
  br label %34

34:                                               ; preds = %33, %30
  %35 = getelementptr inbounds i8, ptr %6, i64 16
  %36 = load ptr, ptr %35, align 8
  %.not4.i.i14 = icmp eq ptr %36, null
  br i1 %.not4.i.i14, label %_ZN12BasicMatcherD2Ev.exit15, label %37

37:                                               ; preds = %34
  call void @_ZN6Symbol18decrement_refcountEv(ptr noundef nonnull align 4 dereferenceable(8) %36) #14
  br label %_ZN12BasicMatcherD2Ev.exit15

_ZN12BasicMatcherD2Ev.exit15:                     ; preds = %34, %37
  call void @_Z8FreeHeapPv(ptr noundef nonnull %6) #14
  br label %38

38:                                               ; preds = %19, %20, %_ZN12BasicMatcherD2Ev.exit15, %_ZN12BasicMatcherD2Ev.exit
  %.0 = phi ptr [ null, %_ZN12BasicMatcherD2Ev.exit ], [ null, %_ZN12BasicMatcherD2Ev.exit15 ], [ %6, %20 ], [ %6, %19 ]
  ret ptr %.0
}